target datalayout = "e-m:e-p270:32:32-p271:32:32-p272:64:64-i64:64-i128:128-f80:128-n8:16:32:64-S128"
target triple = "x86_64-pc-linux-gnu"

%"class.arrow_vendored::double_conversion::Vector" = type <{ ptr, i32, [4 x i8] }>

; Function Attrs: mustprogress uwtable
define linkonce_odr void @_ZN14arrow_vendored17double_conversion6Bignum7Times10Ev(ptr noundef nonnull align 4 dereferenceable(516) %0) #0 comdat align 2 {
  %2 = alloca ptr, align 8
  store ptr %0, ptr %2, align 8, !tbaa !40
  %3 = load ptr, ptr %2, align 8
  call void @_ZN14arrow_vendored17double_conversion6Bignum16MultiplyByUInt32Ej(ptr noundef nonnull align 4 dereferenceable(516) %3, i32 noundef 10)
  ret void
}

; Function Attrs: mustprogress nounwind uwtable
define linkonce_odr noundef nonnull align 1 dereferenceable(1) ptr @_ZNK14arrow_vendored17double_conversion6VectorIcEixEi(ptr noundef nonnull align 8 dereferenceable(12) %0, i32 noundef %1) #2 comdat align 2 {
  %3 = alloca ptr, align 8
  %4 = alloca i32, align 4
  store ptr %0, ptr %3, align 8, !tbaa !36
  store i32 %1, ptr %4, align 4, !tbaa !9
  %5 = load ptr, ptr %3, align 8
  %6 = getelementptr inbounds nuw %"class.arrow_vendored::double_conversion::Vector", ptr %5, i32 0, i32 0
  %7 = load ptr, ptr %6, align 8, !tbaa !38
  %8 = load i32, ptr %4, align 4, !tbaa !9
  %9 = sext i32 %8 to i64
  %10 = getelementptr inbounds i8, ptr %7, i64 %9
  ret ptr %10
}

; Function Attrs: mustprogress uwtable
define internal void @_ZN14arrow_vendored17double_conversionL21GenerateCountedDigitsEiPiPNS0_6BignumES3_NS0_6VectorIcEES1_(i32 noundef %0, ptr noundef %1, ptr noundef %2, ptr noundef %3, ptr %4, i32 %5, ptr noundef %6) #0 {
  %8 = alloca %"class.arrow_vendored::double_conversion::Vector", align 8
  %9 = alloca i32, align 4
  %10 = alloca ptr, align 8
  %11 = alloca ptr, align 8
  %12 = alloca ptr, align 8
  %13 = alloca ptr, align 8
  %14 = alloca i32, align 4
  %15 = alloca i16, align 2
  %16 = alloca i16, align 2
  %17 = alloca i32, align 4
  %18 = alloca i32, align 4
  %19 = getelementptr inbounds nuw { ptr, i32 }, ptr %8, i32 0, i32 0
  store ptr %4, ptr %19, align 8
  %20 = getelementptr inbounds nuw { ptr, i32 }, ptr %8, i32 0, i32 1
  store i32 %5, ptr %20, align 8
  store i32 %0, ptr %9, align 4, !tbaa !9
  store ptr %1, ptr %10, align 8, !tbaa !11
  store ptr %2, ptr %11, align 8, !tbaa !40
  store ptr %3, ptr %12, align 8, !tbaa !40
  store ptr %6, ptr %13, align 8, !tbaa !11
  call void @llvm.lifetime.start.p0(i64 4, ptr %14) #7
  store i32 0, ptr %14, align 4, !tbaa !9
  br label %21

21:                                               ; preds = %38, %7
  %22 = load i32, ptr %14, align 4, !tbaa !9
  %23 = load i32, ptr %9, align 4, !tbaa !9
  %24 = sub nsw i32 %23, 1
  %25 = icmp slt i32 %22, %24
  br i1 %25, label %27, label %26

26:                                               ; preds = %21
  call void @llvm.lifetime.end.p0(i64 4, ptr %14) #7
  br label %41

27:                                               ; preds = %21
  call void @llvm.lifetime.start.p0(i64 2, ptr %15) #7
  %28 = load ptr, ptr %11, align 8, !tbaa !40
  %29 = load ptr, ptr %12, align 8, !tbaa !40
  %30 = call noundef zeroext i16 @_ZN14arrow_vendored17double_conversion6Bignum21DivideModuloIntBignumERKS1_(ptr noundef nonnull align 4 dereferenceable(516) %28, ptr noundef nonnull align 4 dereferenceable(516) %29)
  store i16 %30, ptr %15, align 2, !tbaa !46
  %31 = load i16, ptr %15, align 2, !tbaa !46
  %32 = zext i16 %31 to i32
  %33 = add nsw i32 %32, 48
  %34 = trunc i32 %33 to i8
  %35 = load i32, ptr %14, align 4, !tbaa !9
  %36 = call noundef nonnull align 1 dereferenceable(1) ptr @_ZNK14arrow_vendored17double_conversion6VectorIcEixEi(ptr noundef nonnull align 8 dereferenceable(12) %8, i32 noundef %35)
  store i8 %34, ptr %36, align 1, !tbaa !20
  %37 = load ptr, ptr %11, align 8, !tbaa !40
  call void @_ZN14arrow_vendored17double_conversion6Bignum7Times10Ev(ptr noundef nonnull align 4 dereferenceable(516) %37)
  call void @llvm.lifetime.end.p0(i64 2, ptr %15) #7
  br label %38

38:                                               ; preds = %27
  %39 = load i32, ptr %14, align 4, !tbaa !9
  %40 = add nsw i32 %39, 1
  store i32 %40, ptr %14, align 4, !tbaa !9
  br label %21, !llvm.loop !48

41:                                               ; preds = %26
  call void @llvm.lifetime.start.p0(i64 2, ptr %16) #7
  %42 = load ptr, ptr %11, align 8, !tbaa !40
  %43 = load ptr, ptr %12, align 8, !tbaa !40
  %44 = call noundef zeroext i16 @_ZN14arrow_vendored17double_conversion6Bignum21DivideModuloIntBignumERKS1_(ptr noundef nonnull align 4 dereferenceable(516) %42, ptr noundef nonnull align 4 dereferenceable(516) %43)
  store i16 %44, ptr %16, align 2, !tbaa !46
  %45 = load ptr, ptr %11, align 8, !tbaa !40
  %46 = load ptr, ptr %11, align 8, !tbaa !40
  %47 = load ptr, ptr %12, align 8, !tbaa !40
  %48 = call noundef i32 @_ZN14arrow_vendored17double_conversion6Bignum11PlusCompareERKS1_S3_S3_(ptr noundef nonnull align 4 dereferenceable(516) %45, ptr noundef nonnull align 4 dereferenceable(516) %46, ptr noundef nonnull align 4 dereferenceable(516) %47)
  %49 = icmp sge i32 %48, 0
  br i1 %49, label %50, label %53

50:                                               ; preds = %41
  %51 = load i16, ptr %16, align 2, !tbaa !46
  %52 = add i16 %51, 1
  store i16 %52, ptr %16, align 2, !tbaa !46
  br label %53

53:                                               ; preds = %50, %41
  %54 = load i16, ptr %16, align 2, !tbaa !46
  %55 = zext i16 %54 to i32
  %56 = add nsw i32 %55, 48
  %57 = trunc i32 %56 to i8
  %58 = load i32, ptr %9, align 4, !tbaa !9
  %59 = sub nsw i32 %58, 1
  %60 = call noundef nonnull align 1 dereferenceable(1) ptr @_ZNK14arrow_vendored17double_conversion6VectorIcEixEi(ptr noundef nonnull align 8 dereferenceable(12) %8, i32 noundef %59)
  store i8 %57, ptr %60, align 1, !tbaa !20
  call void @llvm.lifetime.start.p0(i64 4, ptr %17) #7
  %61 = load i32, ptr %9, align 4, !tbaa !9
  %62 = sub nsw i32 %61, 1
  store i32 %62, ptr %17, align 4, !tbaa !9
  br label %63

63:                                               ; preds = %82, %53
  %64 = load i32, ptr %17, align 4, !tbaa !9
  %65 = icmp sgt i32 %64, 0
  br i1 %65, label %67, label %66

66:                                               ; preds = %63
  store i32 5, ptr %18, align 4
  br label %85

67:                                               ; preds = %63
  %68 = load i32, ptr %17, align 4, !tbaa !9
  %69 = call noundef nonnull align 1 dereferenceable(1) ptr @_ZNK14arrow_vendored17double_conversion6VectorIcEixEi(ptr noundef nonnull align 8 dereferenceable(12) %8, i32 noundef %68)
  %70 = load i8, ptr %69, align 1, !tbaa !20
  %71 = sext i8 %70 to i32
  %72 = icmp ne i32 %71, 58
  br i1 %72, label %73, label %74

73:                                               ; preds = %67
  store i32 5, ptr %18, align 4
  br label %85

74:                                               ; preds = %67
  %75 = load i32, ptr %17, align 4, !tbaa !9
  %76 = call noundef nonnull align 1 dereferenceable(1) ptr @_ZNK14arrow_vendored17double_conversion6VectorIcEixEi(ptr noundef nonnull align 8 dereferenceable(12) %8, i32 noundef %75)
  store i8 48, ptr %76, align 1, !tbaa !20
  %77 = load i32, ptr %17, align 4, !tbaa !9
  %78 = sub nsw i32 %77, 1
  %79 = call noundef nonnull align 1 dereferenceable(1) ptr @_ZNK14arrow_vendored17double_conversion6VectorIcEixEi(ptr noundef nonnull align 8 dereferenceable(12) %8, i32 noundef %78)
  %80 = load i8, ptr %79, align 1, !tbaa !20
  %81 = add i8 %80, 1
  store i8 %81, ptr %79, align 1, !tbaa !20
  br label %82

82:                                               ; preds = %74
  %83 = load i32, ptr %17, align 4, !tbaa !9
  %84 = add nsw i32 %83, -1
  store i32 %84, ptr %17, align 4, !tbaa !9
  br label %63, !llvm.loop !49

85:                                               ; preds = %73, %66
  call void @llvm.lifetime.end.p0(i64 4, ptr %17) #7
  br label %86

86:                                               ; preds = %85
  %87 = call noundef nonnull align 1 dereferenceable(1) ptr @_ZNK14arrow_vendored17double_conversion6VectorIcEixEi(ptr noundef nonnull align 8 dereferenceable(12) %8, i32 noundef 0)
  %88 = load i8, ptr %87, align 1, !tbaa !20
  %89 = sext i8 %88 to i32
  %90 = icmp eq i32 %89, 58
  br i1 %90, label %91, label %96

91:                                               ; preds = %86
  %92 = call noundef nonnull align 1 dereferenceable(1) ptr @_ZNK14arrow_vendored17double_conversion6VectorIcEixEi(ptr noundef nonnull align 8 dereferenceable(12) %8, i32 noundef 0)
  store i8 49, ptr %92, align 1, !tbaa !20
  %93 = load ptr, ptr %10, align 8, !tbaa !11
  %94 = load i32, ptr %93, align 4, !tbaa !9
  %95 = add nsw i32 %94, 1
  store i32 %95, ptr %93, align 4, !tbaa !9
  br label %96

96:                                               ; preds = %91, %86
  %97 = load i32, ptr %9, align 4, !tbaa !9
  %98 = load ptr, ptr %13, align 8, !tbaa !11
  store i32 %97, ptr %98, align 4, !tbaa !9
  call void @llvm.lifetime.end.p0(i64 2, ptr %16) #7
  ret void
}